; Function Attrs: nounwind uwtable
define noalias noundef ptr @Bac_PtrTransformTest(ptr noundef readonly captures(none) %0) local_unnamed_addr #0 {
  tail call void @Bac_PtrDumpBlif(ptr noundef nonnull @.str.35, ptr noundef %0)
  %2 = tail call ptr (...) @Abc_FrameGetGlobalFrame() #14
  %3 = icmp eq ptr %2, null
  br i1 %3, label %4, label %5

4:                                                ; preds = %1
  %puts19 = tail call i32 @puts(ptr nonnull dereferenceable(1) @str.1)
  br label %71

5:                                                ; preds = %1
  %6 = tail call ptr (...) @Abc_FrameReadLibGen() #14
  %7 = icmp eq ptr %6, null
  br i1 %7, label %8, label %9

8:                                                ; preds = %5
  %puts = tail call i32 @puts(ptr nonnull dereferenceable(1) @str)
  br label %71

9:                                                ; preds = %5
  %10 = tail call ptr @Bac_ManCollectGateNamesByTruth(ptr noundef nonnull %6)
  %11 = getelementptr i8, ptr %0, i64 4
  %.val22 = load i32, ptr %11, align 4
  %12 = tail call noalias dereferenceable_or_null(16) ptr @malloc(i64 noundef 16) #15
  %13 = getelementptr inbounds nuw i8, ptr %12, i64 4
  store i32 %.val22, ptr %12, align 8
  %.not.i = icmp eq i32 %.val22, 0
  br i1 %.not.i, label %Vec_PtrAllocExact.exit, label %14

14:                                               ; preds = %9
  %15 = sext i32 %.val22 to i64
  %16 = shl nsw i64 %15, 3
  %17 = tail call noalias ptr @malloc(i64 noundef %16) #15
  br label %Vec_PtrAllocExact.exit

Vec_PtrAllocExact.exit:                           ; preds = %9, %14
  %18 = phi ptr [ %17, %14 ], [ null, %9 ]
  %19 = getelementptr inbounds nuw i8, ptr %12, i64 8
  store ptr %18, ptr %19, align 8
  %20 = getelementptr i8, ptr %0, i64 8
  %.val20 = load ptr, ptr %20, align 8
  %21 = load ptr, ptr %.val20, align 8
  %.not.i23 = icmp eq ptr %21, null
  br i1 %.not.i23, label %Abc_UtilStrsav.exit, label %22

22:                                               ; preds = %Vec_PtrAllocExact.exit
  %23 = tail call i64 @strlen(ptr noundef nonnull readonly dereferenceable(1) %21) #16
  %24 = add i64 %23, 1
  %25 = tail call noalias ptr @malloc(i64 noundef %24) #15
  %26 = tail call ptr @strcpy(ptr noundef nonnull dereferenceable(1) %25, ptr noundef nonnull readonly dereferenceable(1) %21) #14
  br label %Abc_UtilStrsav.exit

Abc_UtilStrsav.exit:                              ; preds = %Vec_PtrAllocExact.exit, %22
  %27 = phi ptr [ %25, %22 ], [ null, %Vec_PtrAllocExact.exit ]
  br i1 %.not.i, label %28, label %Vec_PtrPush.exit

28:                                               ; preds = %Abc_UtilStrsav.exit
  %.not9.i.i = icmp eq ptr %18, null
  br i1 %.not9.i.i, label %31, label %29

29:                                               ; preds = %28
  %30 = tail call dereferenceable_or_null(128) ptr @realloc(ptr noundef nonnull %18, i64 noundef 128) #17
  br label %Vec_PtrGrow.exit.i

31:                                               ; preds = %28
  %32 = tail call noalias dereferenceable_or_null(128) ptr @malloc(i64 noundef 128) #15
  br label %Vec_PtrGrow.exit.i

Vec_PtrGrow.exit.i:                               ; preds = %31, %29
  %33 = phi ptr [ %30, %29 ], [ %32, %31 ]
  store ptr %33, ptr %19, align 8
  store i32 16, ptr %12, align 8
  br label %Vec_PtrPush.exit

Vec_PtrPush.exit:                                 ; preds = %Abc_UtilStrsav.exit, %Vec_PtrGrow.exit.i
  %34 = phi ptr [ %33, %Vec_PtrGrow.exit.i ], [ %18, %Abc_UtilStrsav.exit ]
  store i32 1, ptr %13, align 4
  store ptr %27, ptr %34, align 8
  %.val2132 = load i32, ptr %11, align 4
  %35 = icmp sgt i32 %.val2132, 1
  br i1 %35, label %.lr.ph, label %.critedge

.lr.ph:                                           ; preds = %Vec_PtrPush.exit, %Vec_PtrPush.exit30
  %indvars.iv = phi i64 [ %indvars.iv.next, %Vec_PtrPush.exit30 ], [ 1, %Vec_PtrPush.exit ]
  %.val = load ptr, ptr %20, align 8
  %36 = getelementptr inbounds nuw ptr, ptr %.val, i64 %indvars.iv
  %37 = load ptr, ptr %36, align 8
  %38 = tail call ptr @Bac_PtrTransformNtk(ptr noundef %37, ptr noundef %10)
  %39 = load i32, ptr %13, align 4
  %40 = load i32, ptr %12, align 8
  %41 = icmp eq i32 %39, %40
  br i1 %41, label %42, label %.Vec_PtrGrow.exit11_crit_edge.i24

.Vec_PtrGrow.exit11_crit_edge.i24:                ; preds = %.lr.ph
  %.pre.i26 = load ptr, ptr %19, align 8
  br label %Vec_PtrPush.exit30

42:                                               ; preds = %.lr.ph
  %43 = icmp slt i32 %39, 16
  br i1 %43, label %44, label %51

44:                                               ; preds = %42
  %45 = load ptr, ptr %19, align 8
  %.not9.i.i28 = icmp eq ptr %45, null
  br i1 %.not9.i.i28, label %48, label %46

46:                                               ; preds = %44
  %47 = tail call dereferenceable_or_null(128) ptr @realloc(ptr noundef nonnull %45, i64 noundef 128) #17
  br label %Vec_PtrGrow.exit.i29

48:                                               ; preds = %44
  %49 = tail call noalias dereferenceable_or_null(128) ptr @malloc(i64 noundef 128) #15
  br label %Vec_PtrGrow.exit.i29

Vec_PtrGrow.exit.i29:                             ; preds = %48, %46
  %50 = phi ptr [ %47, %46 ], [ %49, %48 ]
  store ptr %50, ptr %19, align 8
  store i32 16, ptr %12, align 8
  br label %Vec_PtrPush.exit30

51:                                               ; preds = %42
  %52 = shl nuw nsw i32 %39, 1
  %53 = load ptr, ptr %19, align 8
  %.not9.i10.i27 = icmp eq ptr %53, null
  %54 = zext nneg i32 %52 to i64
  %55 = shl nuw nsw i64 %54, 3
  br i1 %.not9.i10.i27, label %58, label %56

56:                                               ; preds = %51
  %57 = tail call ptr @realloc(ptr noundef nonnull %53, i64 noundef %55) #17
  br label %60

58:                                               ; preds = %51
  %59 = tail call noalias ptr @malloc(i64 noundef %55) #15
  br label %60

60:                                               ; preds = %58, %56
  %61 = phi ptr [ %57, %56 ], [ %59, %58 ]
  store ptr %61, ptr %19, align 8
  store i32 %52, ptr %12, align 8
  br label %Vec_PtrPush.exit30

Vec_PtrPush.exit30:                               ; preds = %.Vec_PtrGrow.exit11_crit_edge.i24, %Vec_PtrGrow.exit.i29, %60
  %62 = phi ptr [ %.pre.i26, %.Vec_PtrGrow.exit11_crit_edge.i24 ], [ %61, %60 ], [ %50, %Vec_PtrGrow.exit.i29 ]
  %63 = add nsw i32 %39, 1
  store i32 %63, ptr %13, align 4
  %64 = sext i32 %39 to i64
  %65 = getelementptr inbounds ptr, ptr %62, i64 %64
  store ptr %38, ptr %65, align 8
  %indvars.iv.next = add nuw nsw i64 %indvars.iv, 1
  %.val21 = load i32, ptr %11, align 4
  %66 = sext i32 %.val21 to i64
  %67 = icmp slt i64 %indvars.iv.next, %66
  br i1 %67, label %.lr.ph, label %.critedge, !llvm.loop !21

.critedge:                                        ; preds = %Vec_PtrPush.exit30, %Vec_PtrPush.exit
  tail call void @Bac_PtrDumpBlif(ptr noundef nonnull @.str.38, ptr noundef nonnull %12)
  %68 = getelementptr inbounds nuw i8, ptr %10, i64 8
  %69 = load ptr, ptr %68, align 8
  %.not.i31 = icmp eq ptr %69, null
  br i1 %.not.i31, label %Vec_PtrFree.exit, label %70

70:                                               ; preds = %.critedge
  tail call void @free(ptr noundef nonnull %69) #14
  br label %Vec_PtrFree.exit

Vec_PtrFree.exit:                                 ; preds = %.critedge, %70
  tail call void @free(ptr noundef nonnull %10) #14
  br label %71

71:                                               ; preds = %Vec_PtrFree.exit, %8, %4
  %.017 = phi ptr [ null, %4 ], [ null, %8 ], [ %12, %Vec_PtrFree.exit ]
  ret ptr %.017
}